target datalayout = "e-m:e-p270:32:32-p271:32:32-p272:64:64-i64:64-i128:128-f80:128-n8:16:32:64-S128"
target triple = "x86_64-pc-linux-gnu"

%struct._psqlSettings = type { ptr, i32, ptr, i8, ptr, ptr, %struct.printQueryOpt, ptr, ptr, ptr, i8, i8, i32, i32, ptr, ptr, i8, [4 x ptr], i8, i32, ptr, i8, i32, ptr, ptr, i64, i64, i8, ptr, ptr, ptr, i8, i8, i8, i8, i8, i8, i8, i32, i32, i32, i32, i32, i32, i32, i32, ptr, ptr, ptr, i32, i8, i32 }
%struct.printQueryOpt = type { %struct.printTableOpt, ptr, ptr, ptr, i8, ptr, i32 }
%struct.printTableOpt = type { i32, i16, i32, i32, i16, i16, i32, i8, i8, i8, i8, i64, ptr, %struct.separator, %struct.separator, [2 x i8], i8, ptr, i32, i32, i32, i32, i32, i32 }
%struct.separator = type { ptr, i8 }
%struct.PQExpBufferData = type { ptr, i64, i64 }

@pset = external global %struct._psqlSettings, align 8
@.str.2 = private unnamed_addr constant [5 x i8] c"Name\00", align 1
@.str.6 = private unnamed_addr constant [12 x i8] c"Description\00", align 1
@.str.23 = private unnamed_addr constant [12 x i8] c"ORDER BY 1;\00", align 1
@.str.26 = private unnamed_addr constant [6 x i8] c"Owner\00", align 1
@.str.167 = private unnamed_addr constant [18 x i8] c"Access privileges\00", align 1
@.str.321 = private unnamed_addr constant [111 x i8] c"SELECT l.lanname AS \22%s\22,\0A       pg_catalog.pg_get_userbyid(l.lanowner) as \22%s\22,\0A       l.lanpltrusted AS \22%s\22\00", align 1
@.str.322 = private unnamed_addr constant [8 x i8] c"Trusted\00", align 1
@.str.323 = private unnamed_addr constant [206 x i8] c",\0A       NOT l.lanispl AS \22%s\22,\0A       l.lanplcallfoid::pg_catalog.regprocedure AS \22%s\22,\0A       l.lanvalidator::pg_catalog.regprocedure AS \22%s\22,\0A       l.laninline::pg_catalog.regprocedure AS \22%s\22,\0A       \00", align 1
@.str.324 = private unnamed_addr constant [18 x i8] c"Internal language\00", align 1
@.str.325 = private unnamed_addr constant [13 x i8] c"Call handler\00", align 1
@.str.326 = private unnamed_addr constant [10 x i8] c"Validator\00", align 1
@.str.327 = private unnamed_addr constant [15 x i8] c"Inline handler\00", align 1
@.str.328 = private unnamed_addr constant [9 x i8] c"l.lanacl\00", align 1
@.str.329 = private unnamed_addr constant [171 x i8] c",\0A       d.description AS \22%s\22\0AFROM pg_catalog.pg_language l\0ALEFT JOIN pg_catalog.pg_description d\0A  ON d.classoid = l.tableoid AND d.objoid = l.oid\0A  AND d.objsubid = 0\0A\00", align 1
@.str.330 = private unnamed_addr constant [10 x i8] c"l.lanname\00", align 1
@.str.331 = private unnamed_addr constant [28 x i8] c"WHERE l.lanplcallfoid != 0\0A\00", align 1
@.str.332 = private unnamed_addr constant [18 x i8] c"List of languages\00", align 1
@.str.916 = private unnamed_addr constant [110 x i8] c"CASE WHEN pg_catalog.array_length(%s, 1) = 0 THEN '%s' ELSE pg_catalog.array_to_string(%s, E'\\n') END AS \22%s\22\00", align 1
@.str.917 = private unnamed_addr constant [7 x i8] c"(none)\00", align 1

; Function Attrs: nounwind uwtable
define internal void @printACLColumn(ptr noundef %0, ptr noundef %1) #0 {
  %3 = alloca ptr, align 8
  %4 = alloca ptr, align 8
  store ptr %0, ptr %3, align 8
  store ptr %1, ptr %4, align 8
  %5 = load ptr, ptr %3, align 8
  %6 = load ptr, ptr %4, align 8
  %7 = load ptr, ptr %4, align 8
  call void (ptr, ptr, ...) @appendPQExpBuffer(ptr noundef %5, ptr noundef @.str.916, ptr noundef %6, ptr noundef @.str.917, ptr noundef %7, ptr noundef @.str.167)
  ret void
}

; Function Attrs: nounwind uwtable
define dso_local zeroext i1 @listLanguages(ptr noundef %0, i1 noundef zeroext %1, i1 noundef zeroext %2) #0 {
  %4 = alloca i1, align 1
  %5 = alloca ptr, align 8
  %6 = alloca i8, align 1
  %7 = alloca i8, align 1
  %8 = alloca %struct.PQExpBufferData, align 8
  %9 = alloca ptr, align 8
  %10 = alloca %struct.printQueryOpt, align 8
  %11 = alloca i32, align 4
  store ptr %0, ptr %5, align 8
  %12 = zext i1 %1 to i8
  store i8 %12, ptr %6, align 1
  %13 = zext i1 %2 to i8
  store i8 %13, ptr %7, align 1
  call void @llvm.lifetime.start.p0(i64 24, ptr %8) #8
  call void @llvm.lifetime.start.p0(i64 8, ptr %9) #8
  call void @llvm.lifetime.start.p0(i64 168, ptr %10) #8
  call void @llvm.memcpy.p0.p0.i64(ptr align 8 %10, ptr align 8 getelementptr inbounds nuw (%struct._psqlSettings, ptr @pset, i32 0, i32 6), i64 168, i1 false)
  call void @initPQExpBuffer(ptr noundef %8)
  call void (ptr, ptr, ...) @printfPQExpBuffer(ptr noundef %8, ptr noundef @.str.321, ptr noundef @.str.2, ptr noundef @.str.26, ptr noundef @.str.322)
  %14 = load i8, ptr %6, align 1, !range !4, !noundef !5
  %15 = trunc i8 %14 to i1
  br i1 %15, label %16, label %17

16:                                               ; preds = %3
  call void (ptr, ptr, ...) @appendPQExpBuffer(ptr noundef %8, ptr noundef @.str.323, ptr noundef @.str.324, ptr noundef @.str.325, ptr noundef @.str.326, ptr noundef @.str.327)
  call void @printACLColumn(ptr noundef %8, ptr noundef @.str.328)
  br label %17

17:                                               ; preds = %16, %3
  call void (ptr, ptr, ...) @appendPQExpBuffer(ptr noundef %8, ptr noundef @.str.329, ptr noundef @.str.6)
  %18 = load ptr, ptr %5, align 8
  %19 = icmp ne ptr %18, null
  br i1 %19, label %20, label %25

20:                                               ; preds = %17
  %21 = load ptr, ptr %5, align 8
  %22 = call zeroext i1 @validateSQLNamePattern(ptr noundef %8, ptr noundef %21, i1 noundef zeroext false, i1 noundef zeroext false, ptr noundef null, ptr noundef @.str.330, ptr noundef null, ptr noundef null, ptr noundef null, i32 noundef 2)
  br i1 %22, label %24, label %23

23:                                               ; preds = %20
  call void @termPQExpBuffer(ptr noundef %8)
  store i1 false, ptr %4, align 1
  store i32 1, ptr %11, align 4
  br label %46

24:                                               ; preds = %20
  br label %25

25:                                               ; preds = %24, %17
  %26 = load i8, ptr %7, align 1, !range !4, !noundef !5
  %27 = trunc i8 %26 to i1
  br i1 %27, label %32, label %28

28:                                               ; preds = %25
  %29 = load ptr, ptr %5, align 8
  %30 = icmp ne ptr %29, null
  br i1 %30, label %32, label %31

31:                                               ; preds = %28
  call void @appendPQExpBufferStr(ptr noundef %8, ptr noundef @.str.331)
  br label %32

32:                                               ; preds = %31, %28, %25
  call void @appendPQExpBufferStr(ptr noundef %8, ptr noundef @.str.23)
  %33 = getelementptr inbounds nuw %struct.PQExpBufferData, ptr %8, i32 0, i32 0
  %34 = load ptr, ptr %33, align 8
  %35 = call ptr @PSQLexec(ptr noundef %34)
  store ptr %35, ptr %9, align 8
  call void @termPQExpBuffer(ptr noundef %8)
  %36 = load ptr, ptr %9, align 8
  %37 = icmp ne ptr %36, null
  br i1 %37, label %39, label %38

38:                                               ; preds = %32
  store i1 false, ptr %4, align 1
  store i32 1, ptr %11, align 4
  br label %46

39:                                               ; preds = %32
  %40 = getelementptr inbounds nuw %struct.printQueryOpt, ptr %10, i32 0, i32 2
  store ptr @.str.332, ptr %40, align 8
  %41 = getelementptr inbounds nuw %struct.printQueryOpt, ptr %10, i32 0, i32 4
  store i8 1, ptr %41, align 8
  %42 = load ptr, ptr %9, align 8
  %43 = load ptr, ptr getelementptr inbounds nuw (%struct._psqlSettings, ptr @pset, i32 0, i32 2), align 8
  %44 = load ptr, ptr getelementptr inbounds nuw (%struct._psqlSettings, ptr @pset, i32 0, i32 28), align 8
  call void @printQuery(ptr noundef %42, ptr noundef %10, ptr noundef %43, i1 noundef zeroext false, ptr noundef %44)
  %45 = load ptr, ptr %9, align 8
  call void @PQclear(ptr noundef %45)
  store i1 true, ptr %4, align 1
  store i32 1, ptr %11, align 4
  br label %46

46:                                               ; preds = %39, %38, %23
  call void @llvm.lifetime.end.p0(i64 168, ptr %10) #8
  call void @llvm.lifetime.end.p0(i64 8, ptr %9) #8
  call void @llvm.lifetime.end.p0(i64 24, ptr %8) #8
  %47 = load i1, ptr %4, align 1
  ret i1 %47
}