; Function Attrs: nounwind uwtable
define dso_local noundef zeroext i1 @listLanguages(ptr noundef %0, i1 noundef zeroext %1, i1 noundef zeroext %2) local_unnamed_addr #0 {
  %4 = alloca %struct.PQExpBufferData, align 8
  %5 = alloca %struct.printQueryOpt, align 8
  call void @llvm.lifetime.start.p0(i64 24, ptr nonnull %4) #8
  call void @llvm.lifetime.start.p0(i64 168, ptr nonnull %5) #8
  call void @llvm.memcpy.p0.p0.i64(ptr noundef nonnull align 8 dereferenceable(168) %5, ptr noundef nonnull align 8 dereferenceable(168) getelementptr inbounds nuw (i8, ptr @pset, i64 48), i64 168, i1 false)
  call void @initPQExpBuffer(ptr noundef nonnull %4) #8
  call void (ptr, ptr, ...) @printfPQExpBuffer(ptr noundef nonnull %4, ptr noundef nonnull @.str.321, ptr noundef nonnull @.str.2, ptr noundef nonnull @.str.26, ptr noundef nonnull @.str.322) #8
  br i1 %1, label %6, label %7

6:                                                ; preds = %3
  call void (ptr, ptr, ...) @appendPQExpBuffer(ptr noundef nonnull %4, ptr noundef nonnull @.str.323, ptr noundef nonnull @.str.324, ptr noundef nonnull @.str.325, ptr noundef nonnull @.str.326, ptr noundef nonnull @.str.327) #8
  call void (ptr, ptr, ...) @appendPQExpBuffer(ptr noundef nonnull %4, ptr noundef nonnull @.str.916, ptr noundef nonnull @.str.328, ptr noundef nonnull @.str.917, ptr noundef nonnull @.str.328, ptr noundef nonnull @.str.167) #8
  br label %7

7:                                                ; preds = %6, %3
  call void (ptr, ptr, ...) @appendPQExpBuffer(ptr noundef nonnull %4, ptr noundef nonnull @.str.329, ptr noundef nonnull @.str.6) #8
  %.not12 = icmp eq ptr %0, null
  br i1 %.not12, label %11, label %8

8:                                                ; preds = %7
  %9 = call fastcc zeroext i1 @validateSQLNamePattern(ptr noundef %4, ptr noundef nonnull %0, i1 noundef zeroext false, i1 noundef zeroext false, ptr noundef null, ptr noundef nonnull @.str.330, ptr noundef null, ptr noundef null, ptr noundef null, i32 noundef 2)
  br i1 %9, label %.thread, label %10

10:                                               ; preds = %8
  call void @termPQExpBuffer(ptr noundef nonnull %4) #8
  br label %20

11:                                               ; preds = %7
  br i1 %2, label %.thread, label %12

12:                                               ; preds = %11
  call void @appendPQExpBufferStr(ptr noundef nonnull %4, ptr noundef nonnull @.str.331) #8
  br label %.thread

.thread:                                          ; preds = %8, %12, %11
  call void @appendPQExpBufferStr(ptr noundef nonnull %4, ptr noundef nonnull @.str.23) #8
  %13 = load ptr, ptr %4, align 8
  %14 = call ptr @PSQLexec(ptr noundef %13) #8
  call void @termPQExpBuffer(ptr noundef nonnull %4) #8
  %.not = icmp eq ptr %14, null
  br i1 %.not, label %20, label %15

15:                                               ; preds = %.thread
  %16 = getelementptr inbounds nuw i8, ptr %5, i64 128
  store ptr @.str.332, ptr %16, align 8
  %17 = getelementptr inbounds nuw i8, ptr %5, i64 144
  store i8 1, ptr %17, align 8
  %18 = load ptr, ptr getelementptr inbounds nuw (i8, ptr @pset, i64 16), align 8
  %19 = load ptr, ptr getelementptr inbounds nuw (i8, ptr @pset, i64 376), align 8
  call void @printQuery(ptr noundef nonnull %14, ptr noundef nonnull %5, ptr noundef %18, i1 noundef zeroext false, ptr noundef %19) #8
  call void @PQclear(ptr noundef nonnull %14) #8
  br label %20

20:                                               ; preds = %.thread, %15, %10
  %.0 = phi i1 [ true, %15 ], [ false, %10 ], [ false, %.thread ]
  call void @llvm.lifetime.end.p0(i64 168, ptr nonnull %5) #8
  call void @llvm.lifetime.end.p0(i64 24, ptr nonnull %4) #8
  ret i1 %.0
}